; Function Attrs: nounwind uwtable
define internal noundef i32 @outline_cubic_to_cb(ptr noundef readonly captures(address_is_null) %0, ptr noundef readonly captures(address_is_null) %1, ptr noundef readonly captures(address_is_null) %2, ptr noundef %3) #0 {
  %5 = alloca %struct._lv_event_t, align 8
  %6 = alloca %struct._lv_freetype_outline_event_param_t, align 8
  %7 = tail call ptr @lv_freetype_get_context() #9
  call void @llvm.lifetime.start.p0(i64 48, ptr nonnull %6) #9
  call void @lv_memset(ptr noundef nonnull %6, i8 noundef zeroext 0, i64 noundef 48) #9
  store ptr %3, ptr %6, align 8, !tbaa !67
  %8 = getelementptr inbounds nuw i8, ptr %6, i64 8
  store i32 3, ptr %8, align 8, !tbaa !82
  %9 = getelementptr inbounds nuw i8, ptr %6, i64 20
  %.not.i.i = icmp eq ptr %0, null
  br i1 %.not.i.i, label %ft_vector_to_lv_vector.exit.i, label %10

10:                                               ; preds = %4
  %11 = load i64, ptr %0, align 8, !tbaa !83
  %12 = trunc i64 %11 to i32
  %13 = getelementptr inbounds nuw i8, ptr %0, i64 8
  %14 = load i64, ptr %13, align 8, !tbaa !84
  %15 = trunc i64 %14 to i32
  br label %ft_vector_to_lv_vector.exit.i

ft_vector_to_lv_vector.exit.i:                    ; preds = %10, %4
  %.sink.i.i = phi i32 [ %12, %10 ], [ 0, %4 ]
  %16 = phi i32 [ %15, %10 ], [ 0, %4 ]
  store i32 %.sink.i.i, ptr %9, align 4, !tbaa !85
  %17 = getelementptr inbounds nuw i8, ptr %6, i64 24
  store i32 %16, ptr %17, align 8, !tbaa !86
  %18 = getelementptr inbounds nuw i8, ptr %6, i64 28
  %.not.i5.i = icmp eq ptr %1, null
  br i1 %.not.i5.i, label %ft_vector_to_lv_vector.exit7.i, label %19

19:                                               ; preds = %ft_vector_to_lv_vector.exit.i
  %20 = load i64, ptr %1, align 8, !tbaa !83
  %21 = trunc i64 %20 to i32
  %22 = getelementptr inbounds nuw i8, ptr %1, i64 8
  %23 = load i64, ptr %22, align 8, !tbaa !84
  %24 = trunc i64 %23 to i32
  br label %ft_vector_to_lv_vector.exit7.i

ft_vector_to_lv_vector.exit7.i:                   ; preds = %19, %ft_vector_to_lv_vector.exit.i
  %.sink.i6.i = phi i32 [ %21, %19 ], [ 0, %ft_vector_to_lv_vector.exit.i ]
  %25 = phi i32 [ %24, %19 ], [ 0, %ft_vector_to_lv_vector.exit.i ]
  store i32 %.sink.i6.i, ptr %18, align 4, !tbaa !85
  %26 = getelementptr inbounds nuw i8, ptr %6, i64 32
  store i32 %25, ptr %26, align 8, !tbaa !86
  %27 = getelementptr inbounds nuw i8, ptr %6, i64 12
  %.not.i8.i = icmp eq ptr %2, null
  br i1 %.not.i8.i, label %ft_vector_to_lv_vector.exit10.i, label %28

28:                                               ; preds = %ft_vector_to_lv_vector.exit7.i
  %29 = load i64, ptr %2, align 8, !tbaa !83
  %30 = trunc i64 %29 to i32
  %31 = getelementptr inbounds nuw i8, ptr %2, i64 8
  %32 = load i64, ptr %31, align 8, !tbaa !84
  %33 = trunc i64 %32 to i32
  br label %ft_vector_to_lv_vector.exit10.i

ft_vector_to_lv_vector.exit10.i:                  ; preds = %28, %ft_vector_to_lv_vector.exit7.i
  %.sink.i9.i = phi i32 [ %30, %28 ], [ 0, %ft_vector_to_lv_vector.exit7.i ]
  %34 = phi i32 [ %33, %28 ], [ 0, %ft_vector_to_lv_vector.exit7.i ]
  store i32 %.sink.i9.i, ptr %27, align 4, !tbaa !85
  %35 = getelementptr inbounds nuw i8, ptr %6, i64 16
  store i32 %34, ptr %35, align 8, !tbaa !86
  %36 = getelementptr inbounds nuw i8, ptr %7, i64 32
  %37 = load ptr, ptr %36, align 8, !tbaa !59
  %.not.i11.i = icmp eq ptr %37, null
  br i1 %.not.i11.i, label %outline_push_point.exit, label %38

38:                                               ; preds = %ft_vector_to_lv_vector.exit10.i
  call void @llvm.lifetime.start.p0(i64 56, ptr nonnull %5) #9
  call void @lv_memset(ptr noundef nonnull %5, i8 noundef zeroext 0, i64 noundef 56) #9
  %39 = getelementptr inbounds nuw i8, ptr %5, i64 16
  store i32 36, ptr %39, align 8, !tbaa !62
  %40 = getelementptr inbounds nuw i8, ptr %5, i64 32
  store ptr %6, ptr %40, align 8, !tbaa !65
  %41 = getelementptr inbounds nuw i8, ptr %5, i64 24
  store ptr null, ptr %41, align 8, !tbaa !66
  %42 = load ptr, ptr %36, align 8, !tbaa !59
  call void %42(ptr noundef nonnull %5) #9
  call void @llvm.lifetime.end.p0(i64 56, ptr nonnull %5) #9
  br label %outline_push_point.exit

outline_push_point.exit:                          ; preds = %ft_vector_to_lv_vector.exit10.i, %38
  call void @llvm.lifetime.end.p0(i64 48, ptr nonnull %6) #9
  ret i32 0
}